target datalayout = "e-m:e-p270:32:32-p271:32:32-p272:64:64-i64:64-i128:128-f80:128-n8:16:32:64-S128"
target triple = "x86_64-pc-linux-gnu"

%struct.H5G_bt2_ud_common_t = type { ptr, ptr, ptr, i32, i64, ptr, ptr }
%struct.H5O_link_t = type { i32, i8, i64, i32, ptr, %union.anon.0 }
%union.anon.0 = type { %struct.H5O_link_ud_t }
%struct.H5O_link_ud_t = type { ptr, i64 }
%struct.H5G_dense_bt2_name_rec_t = type { [7 x i8], i32 }
%struct.H5G_bt2_ud_rmbi_t = type { ptr, ptr, i32, i64, ptr }
%struct.H5G_fh_ud_rmbi_t = type { ptr, ptr }
%struct.H5G_dense_bt2_corder_rec_t = type { [7 x i8], i64 }

@.str = private unnamed_addr constant [102 x i8] c"generated/home/dtcxzyw/WorkSpace/Projects/compilers/llvm-opt-benchmark/bench/hdf5/hdf5/src/H5Gdense.c\00", align 1
@H5E_SYM_g = external global i64, align 8
@H5E_CLOSEERROR_g = external global i64, align 8
@H5E_CANTOPENOBJ_g = external global i64, align 8
@H5E_CANTREMOVE_g = external global i64, align 8
@H5E_CANTDELETE_g = external global i64, align 8
@H5E_CANTOPERATE_g = external global i64, align 8
@.str.44 = private unnamed_addr constant [29 x i8] c"link removal callback failed\00", align 1
@.str.45 = private unnamed_addr constant [40 x i8] c"unable to remove link from fractal heap\00", align 1
@H5E_CANTRENAME_g = external global i64, align 8
@.str.47 = private unnamed_addr constant [30 x i8] c"unable to rename open objects\00", align 1
@.str.48 = private unnamed_addr constant [22 x i8] c"unable to delete link\00", align 1
@__func__.H5G__dense_remove_by_idx_bt2_cb = private unnamed_addr constant [32 x i8] c"H5G__dense_remove_by_idx_bt2_cb\00", align 1
@.str.49 = private unnamed_addr constant [43 x i8] c"unable to open v2 B-tree for 'other' index\00", align 1
@.str.50 = private unnamed_addr constant [51 x i8] c"unable to remove link from 'other' index v2 B-tree\00", align 1
@.str.51 = private unnamed_addr constant [40 x i8] c"can't close v2 B-tree for 'other' index\00", align 1

; Function Attrs: nounwind uwtable
define internal i32 @H5G__dense_remove_by_idx_bt2_cb(ptr noundef %0, ptr noundef %1) #0 {
  %3 = alloca ptr, align 8
  %4 = alloca ptr, align 8
  %5 = alloca ptr, align 8
  %6 = alloca %struct.H5G_fh_ud_rmbi_t, align 8
  %7 = alloca ptr, align 8
  %8 = alloca ptr, align 8
  %9 = alloca i32, align 4
  %10 = alloca i8, align 1
  %11 = alloca ptr, align 8
  %12 = alloca ptr, align 8
  %13 = alloca %struct.H5G_bt2_ud_common_t, align 8
  store ptr %0, ptr %3, align 8
  store ptr %1, ptr %4, align 8
  %14 = load ptr, ptr %4, align 8
  store ptr %14, ptr %5, align 8
  store ptr null, ptr %7, align 8
  store i32 0, ptr %9, align 4
  store i8 0, ptr %10, align 1
  %15 = load ptr, ptr %5, align 8
  %16 = getelementptr inbounds %struct.H5G_bt2_ud_rmbi_t, ptr %15, i32 0, i32 2
  %17 = load i32, ptr %16, align 8
  %18 = icmp eq i32 %17, 0
  br i1 %18, label %19, label %24

19:                                               ; preds = %2
  %20 = load ptr, ptr %3, align 8
  store ptr %20, ptr %11, align 8
  %21 = load ptr, ptr %11, align 8
  %22 = getelementptr inbounds %struct.H5G_dense_bt2_name_rec_t, ptr %21, i32 0, i32 0
  %23 = getelementptr inbounds [7 x i8], ptr %22, i64 0, i64 0
  store ptr %23, ptr %8, align 8
  br label %29

24:                                               ; preds = %2
  %25 = load ptr, ptr %3, align 8
  store ptr %25, ptr %12, align 8
  %26 = load ptr, ptr %12, align 8
  %27 = getelementptr inbounds %struct.H5G_dense_bt2_corder_rec_t, ptr %26, i32 0, i32 0
  %28 = getelementptr inbounds [7 x i8], ptr %27, i64 0, i64 0
  store ptr %28, ptr %8, align 8
  br label %29

29:                                               ; preds = %24, %19
  %30 = load ptr, ptr %5, align 8
  %31 = getelementptr inbounds %struct.H5G_bt2_ud_rmbi_t, ptr %30, i32 0, i32 0
  %32 = load ptr, ptr %31, align 8
  %33 = getelementptr inbounds %struct.H5G_fh_ud_rmbi_t, ptr %6, i32 0, i32 0
  store ptr %32, ptr %33, align 8
  %34 = getelementptr inbounds %struct.H5G_fh_ud_rmbi_t, ptr %6, i32 0, i32 1
  store ptr null, ptr %34, align 8
  %35 = load ptr, ptr %5, align 8
  %36 = getelementptr inbounds %struct.H5G_bt2_ud_rmbi_t, ptr %35, i32 0, i32 1
  %37 = load ptr, ptr %36, align 8
  %38 = load ptr, ptr %8, align 8
  %39 = call i32 @H5HF_op(ptr noundef %37, ptr noundef %38, ptr noundef @H5G__dense_remove_by_idx_fh_cb, ptr noundef %6)
  %40 = icmp slt i32 %39, 0
  br i1 %40, label %41, label %56

41:                                               ; preds = %29
  br label %42

42:                                               ; preds = %41
  br label %43

43:                                               ; preds = %42
  br label %44

44:                                               ; preds = %43
  %45 = load i64, ptr @H5E_SYM_g, align 8
  %46 = load i64, ptr @H5E_CANTOPERATE_g, align 8
  %47 = call i32 (ptr, ptr, i32, i64, i64, ptr, ...) @H5E_printf_stack(ptr noundef @.str, ptr noundef @__func__.H5G__dense_remove_by_idx_bt2_cb, i32 noundef 1401, i64 noundef %45, i64 noundef %46, ptr noundef @.str.44)
  br label %48

48:                                               ; preds = %44
  store i8 1, ptr %10, align 1
  %49 = load i8, ptr %10, align 1
  %50 = trunc i8 %49 to i1
  %51 = zext i1 %50 to i8
  store i8 %51, ptr %10, align 1
  br label %52

52:                                               ; preds = %48
  br label %53

53:                                               ; preds = %52
  store i32 -1, ptr %9, align 4
  br label %218

54:                                               ; No predecessors!
  br label %55

55:                                               ; preds = %54
  br label %56

56:                                               ; preds = %55, %29
  %57 = load ptr, ptr %5, align 8
  %58 = getelementptr inbounds %struct.H5G_bt2_ud_rmbi_t, ptr %57, i32 0, i32 3
  %59 = load i64, ptr %58, align 8
  %60 = icmp ne i64 %59, -1
  br i1 %60, label %61, label %143

61:                                               ; preds = %56
  %62 = load ptr, ptr %5, align 8
  %63 = getelementptr inbounds %struct.H5G_bt2_ud_rmbi_t, ptr %62, i32 0, i32 2
  %64 = load i32, ptr %63, align 8
  %65 = icmp eq i32 %64, 0
  br i1 %65, label %66, label %72

66:                                               ; preds = %61
  %67 = getelementptr inbounds %struct.H5G_fh_ud_rmbi_t, ptr %6, i32 0, i32 1
  %68 = load ptr, ptr %67, align 8
  %69 = getelementptr inbounds %struct.H5O_link_t, ptr %68, i32 0, i32 2
  %70 = load i64, ptr %69, align 8
  %71 = getelementptr inbounds %struct.H5G_bt2_ud_common_t, ptr %13, i32 0, i32 4
  store i64 %70, ptr %71, align 8
  br label %99

72:                                               ; preds = %61
  %73 = load ptr, ptr %5, align 8
  %74 = getelementptr inbounds %struct.H5G_bt2_ud_rmbi_t, ptr %73, i32 0, i32 0
  %75 = load ptr, ptr %74, align 8
  %76 = getelementptr inbounds %struct.H5G_bt2_ud_common_t, ptr %13, i32 0, i32 0
  store ptr %75, ptr %76, align 8
  %77 = load ptr, ptr %5, align 8
  %78 = getelementptr inbounds %struct.H5G_bt2_ud_rmbi_t, ptr %77, i32 0, i32 1
  %79 = load ptr, ptr %78, align 8
  %80 = getelementptr inbounds %struct.H5G_bt2_ud_common_t, ptr %13, i32 0, i32 1
  store ptr %79, ptr %80, align 8
  %81 = getelementptr inbounds %struct.H5G_fh_ud_rmbi_t, ptr %6, i32 0, i32 1
  %82 = load ptr, ptr %81, align 8
  %83 = getelementptr inbounds %struct.H5O_link_t, ptr %82, i32 0, i32 4
  %84 = load ptr, ptr %83, align 8
  %85 = getelementptr inbounds %struct.H5G_bt2_ud_common_t, ptr %13, i32 0, i32 2
  store ptr %84, ptr %85, align 8
  %86 = getelementptr inbounds %struct.H5G_fh_ud_rmbi_t, ptr %6, i32 0, i32 1
  %87 = load ptr, ptr %86, align 8
  %88 = getelementptr inbounds %struct.H5O_link_t, ptr %87, i32 0, i32 4
  %89 = load ptr, ptr %88, align 8
  %90 = getelementptr inbounds %struct.H5G_fh_ud_rmbi_t, ptr %6, i32 0, i32 1
  %91 = load ptr, ptr %90, align 8
  %92 = getelementptr inbounds %struct.H5O_link_t, ptr %91, i32 0, i32 4
  %93 = load ptr, ptr %92, align 8
  %94 = call i64 @strlen(ptr noundef %93) #7
  %95 = call i32 @H5_checksum_lookup3(ptr noundef %89, i64 noundef %94, i32 noundef 0)
  %96 = getelementptr inbounds %struct.H5G_bt2_ud_common_t, ptr %13, i32 0, i32 3
  store i32 %95, ptr %96, align 8
  %97 = getelementptr inbounds %struct.H5G_bt2_ud_common_t, ptr %13, i32 0, i32 5
  store ptr null, ptr %97, align 8
  %98 = getelementptr inbounds %struct.H5G_bt2_ud_common_t, ptr %13, i32 0, i32 6
  store ptr null, ptr %98, align 8
  br label %99

99:                                               ; preds = %72, %66
  %100 = load ptr, ptr %5, align 8
  %101 = getelementptr inbounds %struct.H5G_bt2_ud_rmbi_t, ptr %100, i32 0, i32 0
  %102 = load ptr, ptr %101, align 8
  %103 = load ptr, ptr %5, align 8
  %104 = getelementptr inbounds %struct.H5G_bt2_ud_rmbi_t, ptr %103, i32 0, i32 3
  %105 = load i64, ptr %104, align 8
  %106 = call ptr @H5B2_open(ptr noundef %102, i64 noundef %105, ptr noundef null)
  store ptr %106, ptr %7, align 8
  %107 = icmp eq ptr null, %106
  br i1 %107, label %108, label %123

108:                                              ; preds = %99
  br label %109

109:                                              ; preds = %108
  br label %110

110:                                              ; preds = %109
  br label %111

111:                                              ; preds = %110
  %112 = load i64, ptr @H5E_SYM_g, align 8
  %113 = load i64, ptr @H5E_CANTOPENOBJ_g, align 8
  %114 = call i32 (ptr, ptr, i32, i64, i64, ptr, ...) @H5E_printf_stack(ptr noundef @.str, ptr noundef @__func__.H5G__dense_remove_by_idx_bt2_cb, i32 noundef 1428, i64 noundef %112, i64 noundef %113, ptr noundef @.str.49)
  br label %115

115:                                              ; preds = %111
  store i8 1, ptr %10, align 1
  %116 = load i8, ptr %10, align 1
  %117 = trunc i8 %116 to i1
  %118 = zext i1 %117 to i8
  store i8 %118, ptr %10, align 1
  br label %119

119:                                              ; preds = %115
  br label %120

120:                                              ; preds = %119
  store i32 -1, ptr %9, align 4
  br label %218

121:                                              ; No predecessors!
  br label %122

122:                                              ; preds = %121
  br label %123

123:                                              ; preds = %122, %99
  %124 = load ptr, ptr %7, align 8
  %125 = call i32 @H5B2_remove(ptr noundef %124, ptr noundef %13, ptr noundef null, ptr noundef null)
  %126 = icmp slt i32 %125, 0
  br i1 %126, label %127, label %142

127:                                              ; preds = %123
  br label %128

128:                                              ; preds = %127
  br label %129

129:                                              ; preds = %128
  br label %130

130:                                              ; preds = %129
  %131 = load i64, ptr @H5E_SYM_g, align 8
  %132 = load i64, ptr @H5E_CANTREMOVE_g, align 8
  %133 = call i32 (ptr, ptr, i32, i64, i64, ptr, ...) @H5E_printf_stack(ptr noundef @.str, ptr noundef @__func__.H5G__dense_remove_by_idx_bt2_cb, i32 noundef 1435, i64 noundef %131, i64 noundef %132, ptr noundef @.str.50)
  br label %134

134:                                              ; preds = %130
  store i8 1, ptr %10, align 1
  %135 = load i8, ptr %10, align 1
  %136 = trunc i8 %135 to i1
  %137 = zext i1 %136 to i8
  store i8 %137, ptr %10, align 1
  br label %138

138:                                              ; preds = %134
  br label %139

139:                                              ; preds = %138
  store i32 -1, ptr %9, align 4
  br label %218

140:                                              ; No predecessors!
  br label %141

141:                                              ; preds = %140
  br label %142

142:                                              ; preds = %141, %123
  br label %143

143:                                              ; preds = %142, %56
  %144 = load ptr, ptr %5, align 8
  %145 = getelementptr inbounds %struct.H5G_bt2_ud_rmbi_t, ptr %144, i32 0, i32 0
  %146 = load ptr, ptr %145, align 8
  %147 = load ptr, ptr %5, align 8
  %148 = getelementptr inbounds %struct.H5G_bt2_ud_rmbi_t, ptr %147, i32 0, i32 4
  %149 = load ptr, ptr %148, align 8
  %150 = getelementptr inbounds %struct.H5G_fh_ud_rmbi_t, ptr %6, i32 0, i32 1
  %151 = load ptr, ptr %150, align 8
  %152 = call i32 @H5G__link_name_replace(ptr noundef %146, ptr noundef %149, ptr noundef %151)
  %153 = icmp slt i32 %152, 0
  br i1 %153, label %154, label %169

154:                                              ; preds = %143
  br label %155

155:                                              ; preds = %154
  br label %156

156:                                              ; preds = %155
  br label %157

157:                                              ; preds = %156
  %158 = load i64, ptr @H5E_SYM_g, align 8
  %159 = load i64, ptr @H5E_CANTRENAME_g, align 8
  %160 = call i32 (ptr, ptr, i32, i64, i64, ptr, ...) @H5E_printf_stack(ptr noundef @.str, ptr noundef @__func__.H5G__dense_remove_by_idx_bt2_cb, i32 noundef 1440, i64 noundef %158, i64 noundef %159, ptr noundef @.str.47)
  br label %161

161:                                              ; preds = %157
  store i8 1, ptr %10, align 1
  %162 = load i8, ptr %10, align 1
  %163 = trunc i8 %162 to i1
  %164 = zext i1 %163 to i8
  store i8 %164, ptr %10, align 1
  br label %165

165:                                              ; preds = %161
  br label %166

166:                                              ; preds = %165
  store i32 -1, ptr %9, align 4
  br label %218

167:                                              ; No predecessors!
  br label %168

168:                                              ; preds = %167
  br label %169

169:                                              ; preds = %168, %143
  %170 = load ptr, ptr %5, align 8
  %171 = getelementptr inbounds %struct.H5G_bt2_ud_rmbi_t, ptr %170, i32 0, i32 0
  %172 = load ptr, ptr %171, align 8
  %173 = getelementptr inbounds %struct.H5G_fh_ud_rmbi_t, ptr %6, i32 0, i32 1
  %174 = load ptr, ptr %173, align 8
  %175 = call i32 @H5O_link_delete(ptr noundef %172, ptr noundef null, ptr noundef %174)
  %176 = icmp slt i32 %175, 0
  br i1 %176, label %177, label %192

177:                                              ; preds = %169
  br label %178

178:                                              ; preds = %177
  br label %179

179:                                              ; preds = %178
  br label %180

180:                                              ; preds = %179
  %181 = load i64, ptr @H5E_SYM_g, align 8
  %182 = load i64, ptr @H5E_CANTDELETE_g, align 8
  %183 = call i32 (ptr, ptr, i32, i64, i64, ptr, ...) @H5E_printf_stack(ptr noundef @.str, ptr noundef @__func__.H5G__dense_remove_by_idx_bt2_cb, i32 noundef 1445, i64 noundef %181, i64 noundef %182, ptr noundef @.str.48)
  br label %184

184:                                              ; preds = %180
  store i8 1, ptr %10, align 1
  %185 = load i8, ptr %10, align 1
  %186 = trunc i8 %185 to i1
  %187 = zext i1 %186 to i8
  store i8 %187, ptr %10, align 1
  br label %188

188:                                              ; preds = %184
  br label %189

189:                                              ; preds = %188
  store i32 -1, ptr %9, align 4
  br label %218

190:                                              ; No predecessors!
  br label %191

191:                                              ; preds = %190
  br label %192

192:                                              ; preds = %191, %169
  %193 = getelementptr inbounds %struct.H5G_fh_ud_rmbi_t, ptr %6, i32 0, i32 1
  %194 = load ptr, ptr %193, align 8
  %195 = call ptr @H5O_msg_free(i32 noundef 6, ptr noundef %194)
  %196 = load ptr, ptr %5, align 8
  %197 = getelementptr inbounds %struct.H5G_bt2_ud_rmbi_t, ptr %196, i32 0, i32 1
  %198 = load ptr, ptr %197, align 8
  %199 = load ptr, ptr %8, align 8
  %200 = call i32 @H5HF_remove(ptr noundef %198, ptr noundef %199)
  %201 = icmp slt i32 %200, 0
  br i1 %201, label %202, label %217

202:                                              ; preds = %192
  br label %203

203:                                              ; preds = %202
  br label %204

204:                                              ; preds = %203
  br label %205

205:                                              ; preds = %204
  %206 = load i64, ptr @H5E_SYM_g, align 8
  %207 = load i64, ptr @H5E_CANTREMOVE_g, align 8
  %208 = call i32 (ptr, ptr, i32, i64, i64, ptr, ...) @H5E_printf_stack(ptr noundef @.str, ptr noundef @__func__.H5G__dense_remove_by_idx_bt2_cb, i32 noundef 1452, i64 noundef %206, i64 noundef %207, ptr noundef @.str.45)
  br label %209

209:                                              ; preds = %205
  store i8 1, ptr %10, align 1
  %210 = load i8, ptr %10, align 1
  %211 = trunc i8 %210 to i1
  %212 = zext i1 %211 to i8
  store i8 %212, ptr %10, align 1
  br label %213

213:                                              ; preds = %209
  br label %214

214:                                              ; preds = %213
  store i32 -1, ptr %9, align 4
  br label %218

215:                                              ; No predecessors!
  br label %216

216:                                              ; preds = %215
  br label %217

217:                                              ; preds = %216, %192
  br label %218

218:                                              ; preds = %217, %214, %189, %166, %139, %120, %53
  %219 = load ptr, ptr %7, align 8
  %220 = icmp ne ptr %219, null
  br i1 %220, label %221, label %238

221:                                              ; preds = %218
  %222 = load ptr, ptr %7, align 8
  %223 = call i32 @H5B2_close(ptr noundef %222)
  %224 = icmp slt i32 %223, 0
  br i1 %224, label %225, label %238

225:                                              ; preds = %221
  br label %226

226:                                              ; preds = %225
  br label %227

227:                                              ; preds = %226
  br label %228

228:                                              ; preds = %227
  %229 = load i64, ptr @H5E_SYM_g, align 8
  %230 = load i64, ptr @H5E_CLOSEERROR_g, align 8
  %231 = call i32 (ptr, ptr, i32, i64, i64, ptr, ...) @H5E_printf_stack(ptr noundef @.str, ptr noundef @__func__.H5G__dense_remove_by_idx_bt2_cb, i32 noundef 1457, i64 noundef %229, i64 noundef %230, ptr noundef @.str.51)
  br label %232

232:                                              ; preds = %228
  store i8 1, ptr %10, align 1
  %233 = load i8, ptr %10, align 1
  %234 = trunc i8 %233 to i1
  %235 = zext i1 %234 to i8
  store i8 %235, ptr %10, align 1
  br label %236

236:                                              ; preds = %232
  store i32 -1, ptr %9, align 4
  br label %237

237:                                              ; preds = %236
  br label %238

238:                                              ; preds = %237, %221, %218
  %239 = load i32, ptr %9, align 4
  ret i32 %239
}