; Function Attrs: nounwind uwtable
define internal range(i32 -1, 1) i32 @H5G__dense_remove_by_idx_bt2_cb(ptr noundef %0, ptr nocapture noundef readonly %1) #0 {
  %3 = alloca %struct.H5G_fh_ud_rmbi_t, align 8
  %4 = alloca %struct.H5G_bt2_ud_common_t, align 16
  %5 = getelementptr inbounds i8, ptr %1, i64 16
  %6 = load ptr, ptr %1, align 8
  store ptr %6, ptr %3, align 8
  %7 = getelementptr inbounds i8, ptr %3, i64 8
  store ptr null, ptr %7, align 8
  %8 = getelementptr inbounds i8, ptr %1, i64 8
  %9 = load ptr, ptr %8, align 8
  %10 = call i32 @H5HF_op(ptr noundef %9, ptr noundef %0, ptr noundef nonnull @H5G__dense_remove_by_idx_fh_cb, ptr noundef nonnull %3) #8
  %11 = icmp slt i32 %10, 0
  br i1 %11, label %12, label %16

12:                                               ; preds = %2
  %13 = load i64, ptr @H5E_SYM_g, align 8
  %14 = load i64, ptr @H5E_CANTOPERATE_g, align 8
  %15 = call i32 (ptr, ptr, i32, i64, i64, ptr, ...) @H5E_printf_stack(ptr noundef nonnull @.str, ptr noundef nonnull @__func__.H5G__dense_remove_by_idx_bt2_cb, i32 noundef 1401, i64 noundef %13, i64 noundef %14, ptr noundef nonnull @.str.44) #8
  br label %.thread

16:                                               ; preds = %2
  %17 = getelementptr inbounds i8, ptr %1, i64 24
  %18 = load i64, ptr %17, align 8
  %.not = icmp eq i64 %18, -1
  br i1 %.not, label %52, label %19

19:                                               ; preds = %16
  %20 = load i32, ptr %5, align 8
  %21 = icmp eq i32 %20, 0
  br i1 %21, label %22, label %27

22:                                               ; preds = %19
  %23 = load ptr, ptr %7, align 8
  %24 = getelementptr inbounds i8, ptr %23, i64 8
  %25 = load i64, ptr %24, align 8
  %26 = getelementptr inbounds i8, ptr %4, i64 32
  store i64 %25, ptr %26, align 16
  br label %37

27:                                               ; preds = %19
  %28 = load <2 x ptr>, ptr %1, align 8
  store <2 x ptr> %28, ptr %4, align 16
  %29 = load ptr, ptr %7, align 8
  %30 = getelementptr inbounds i8, ptr %29, i64 24
  %31 = load ptr, ptr %30, align 8
  %32 = getelementptr inbounds i8, ptr %4, i64 16
  store ptr %31, ptr %32, align 16
  %33 = call i64 @strlen(ptr noundef nonnull dereferenceable(1) %31) #9
  %34 = call i32 @H5_checksum_lookup3(ptr noundef %31, i64 noundef %33, i32 noundef 0) #8
  %35 = getelementptr inbounds i8, ptr %4, i64 24
  store i32 %34, ptr %35, align 8
  %36 = getelementptr inbounds i8, ptr %4, i64 40
  call void @llvm.memset.p0.i64(ptr noundef nonnull align 8 dereferenceable(16) %36, i8 0, i64 16, i1 false)
  %.pre = load i64, ptr %17, align 8
  br label %37

37:                                               ; preds = %27, %22
  %38 = phi i64 [ %.pre, %27 ], [ %18, %22 ]
  %39 = load ptr, ptr %1, align 8
  %40 = call ptr @H5B2_open(ptr noundef %39, i64 noundef %38, ptr noundef null) #8
  %41 = icmp eq ptr %40, null
  br i1 %41, label %42, label %46

42:                                               ; preds = %37
  %43 = load i64, ptr @H5E_SYM_g, align 8
  %44 = load i64, ptr @H5E_CANTOPENOBJ_g, align 8
  %45 = call i32 (ptr, ptr, i32, i64, i64, ptr, ...) @H5E_printf_stack(ptr noundef nonnull @.str, ptr noundef nonnull @__func__.H5G__dense_remove_by_idx_bt2_cb, i32 noundef 1428, i64 noundef %43, i64 noundef %44, ptr noundef nonnull @.str.49) #8
  br label %.thread

46:                                               ; preds = %37
  %47 = call i32 @H5B2_remove(ptr noundef nonnull %40, ptr noundef nonnull %4, ptr noundef null, ptr noundef null) #8
  %48 = icmp slt i32 %47, 0
  br i1 %48, label %.thread39, label %52

.thread39:                                        ; preds = %46
  %49 = load i64, ptr @H5E_SYM_g, align 8
  %50 = load i64, ptr @H5E_CANTREMOVE_g, align 8
  %51 = call i32 (ptr, ptr, i32, i64, i64, ptr, ...) @H5E_printf_stack(ptr noundef nonnull @.str, ptr noundef nonnull @__func__.H5G__dense_remove_by_idx_bt2_cb, i32 noundef 1435, i64 noundef %49, i64 noundef %50, ptr noundef nonnull @.str.50) #8
  br label %83

52:                                               ; preds = %46, %16
  %.0 = phi ptr [ %40, %46 ], [ null, %16 ]
  %53 = load ptr, ptr %1, align 8
  %54 = getelementptr inbounds i8, ptr %1, i64 32
  %55 = load ptr, ptr %54, align 8
  %56 = load ptr, ptr %7, align 8
  %57 = call i32 @H5G__link_name_replace(ptr noundef %53, ptr noundef %55, ptr noundef %56) #8
  %58 = icmp slt i32 %57, 0
  br i1 %58, label %59, label %63

59:                                               ; preds = %52
  %60 = load i64, ptr @H5E_SYM_g, align 8
  %61 = load i64, ptr @H5E_CANTRENAME_g, align 8
  %62 = call i32 (ptr, ptr, i32, i64, i64, ptr, ...) @H5E_printf_stack(ptr noundef nonnull @.str, ptr noundef nonnull @__func__.H5G__dense_remove_by_idx_bt2_cb, i32 noundef 1440, i64 noundef %60, i64 noundef %61, ptr noundef nonnull @.str.47) #8
  br label %82

63:                                               ; preds = %52
  %64 = load ptr, ptr %1, align 8
  %65 = load ptr, ptr %7, align 8
  %66 = call i32 @H5O_link_delete(ptr noundef %64, ptr noundef null, ptr noundef %65) #8
  %67 = icmp slt i32 %66, 0
  br i1 %67, label %68, label %72

68:                                               ; preds = %63
  %69 = load i64, ptr @H5E_SYM_g, align 8
  %70 = load i64, ptr @H5E_CANTDELETE_g, align 8
  %71 = call i32 (ptr, ptr, i32, i64, i64, ptr, ...) @H5E_printf_stack(ptr noundef nonnull @.str, ptr noundef nonnull @__func__.H5G__dense_remove_by_idx_bt2_cb, i32 noundef 1445, i64 noundef %69, i64 noundef %70, ptr noundef nonnull @.str.48) #8
  br label %82

72:                                               ; preds = %63
  %73 = load ptr, ptr %7, align 8
  %74 = call ptr @H5O_msg_free(i32 noundef 6, ptr noundef %73) #8
  %75 = load ptr, ptr %8, align 8
  %76 = call i32 @H5HF_remove(ptr noundef %75, ptr noundef %0) #8
  %77 = icmp slt i32 %76, 0
  br i1 %77, label %78, label %82

78:                                               ; preds = %72
  %79 = load i64, ptr @H5E_SYM_g, align 8
  %80 = load i64, ptr @H5E_CANTREMOVE_g, align 8
  %81 = call i32 (ptr, ptr, i32, i64, i64, ptr, ...) @H5E_printf_stack(ptr noundef nonnull @.str, ptr noundef nonnull @__func__.H5G__dense_remove_by_idx_bt2_cb, i32 noundef 1452, i64 noundef %79, i64 noundef %80, ptr noundef nonnull @.str.45) #8
  br label %82

82:                                               ; preds = %72, %78, %68, %59
  %.031 = phi i32 [ -1, %59 ], [ -1, %68 ], [ -1, %78 ], [ 0, %72 ]
  %.not35 = icmp eq ptr %.0, null
  br i1 %.not35, label %.thread, label %83

83:                                               ; preds = %.thread39, %82
  %.144 = phi ptr [ %40, %.thread39 ], [ %.0, %82 ]
  %.03143 = phi i32 [ -1, %.thread39 ], [ %.031, %82 ]
  %84 = call i32 @H5B2_close(ptr noundef nonnull %.144) #8
  %85 = icmp slt i32 %84, 0
  br i1 %85, label %86, label %.thread

86:                                               ; preds = %83
  %87 = load i64, ptr @H5E_SYM_g, align 8
  %88 = load i64, ptr @H5E_CLOSEERROR_g, align 8
  %89 = call i32 (ptr, ptr, i32, i64, i64, ptr, ...) @H5E_printf_stack(ptr noundef nonnull @.str, ptr noundef nonnull @__func__.H5G__dense_remove_by_idx_bt2_cb, i32 noundef 1457, i64 noundef %87, i64 noundef %88, ptr noundef nonnull @.str.51) #8
  br label %.thread

.thread:                                          ; preds = %42, %12, %86, %83, %82
  %.132 = phi i32 [ -1, %86 ], [ %.03143, %83 ], [ %.031, %82 ], [ -1, %12 ], [ -1, %42 ]
  ret i32 %.132
}